#include <math.h>
#include <stdio.h>
#include <stdlib.h>
#include <string.h>
#include <iostream>
using namespace std;


int main()
{
	int a,b,num=0,i;
	char n[31],m[31];
	cin>>a>>n>>b;
	for(i=0;i<strlen(n);i++)
        {
		if(n[i]<58)n[i]-=48;
		else
		{
			if(n[i]>96)n[i]-=87;
			else n[i]-=55;
		}
		num=num*a+n[i];
        }
	i=0;
	do
	{
		if(num%b<10)m[i]=num%b+48;
		else m[i]=num%b+55;
		num=num/b;
		i++;
	}while(num);
	for(;i>0;i--)cout<<m[i-1];
	return 0;
}