; ModuleID = 'source-C-CXX/54/956.cpp'
source_filename = "source-C-CXX/54/956.cpp"
target datalayout = "e-m:e-p270:32:32-p271:32:32-p272:64:64-i64:64-f80:128-n8:16:32:64-S128"
target triple = "x86_64-pc-linux-gnu"

%"class.std::ios_base::Init" = type { i8 }
%"class.std::basic_istream" = type { i32 (...)**, i64, %"class.std::basic_ios" }
%"class.std::basic_ios" = type { %"class.std::ios_base", %"class.std::basic_ostream"*, i8, i8, %"class.std::basic_streambuf"*, %"class.std::ctype"*, %"class.std::num_put"*, %"class.std::num_get"* }
%"class.std::ios_base" = type { i32 (...)**, i64, i64, i32, i32, i32, %"struct.std::ios_base::_Callback_list"*, %"struct.std::ios_base::_Words", [8 x %"struct.std::ios_base::_Words"], i32, %"struct.std::ios_base::_Words"*, %"class.std::locale" }
%"struct.std::ios_base::_Callback_list" = type { %"struct.std::ios_base::_Callback_list"*, void (i32, %"class.std::ios_base"*, i32)*, i32, i32 }
%"struct.std::ios_base::_Words" = type { i8*, i64 }
%"class.std::locale" = type { %"class.std::locale::_Impl"* }
%"class.std::locale::_Impl" = type { i32, %"class.std::locale::facet"**, i64, %"class.std::locale::facet"**, i8** }
%"class.std::locale::facet" = type <{ i32 (...)**, i32, [4 x i8] }>
%"class.std::basic_ostream" = type { i32 (...)**, %"class.std::basic_ios" }
%"class.std::basic_streambuf" = type { i32 (...)**, i8*, i8*, i8*, i8*, i8*, i8*, %"class.std::locale" }
%"class.std::ctype" = type <{ %"class.std::locale::facet.base", [4 x i8], %struct.__locale_struct*, i8, [7 x i8], i32*, i32*, i16*, i8, [256 x i8], [256 x i8], i8, [6 x i8] }>
%"class.std::locale::facet.base" = type <{ i32 (...)**, i32 }>
%struct.__locale_struct = type { [13 x %struct.__locale_data*], i16*, i32*, i32*, [13 x i8*] }
%struct.__locale_data = type opaque
%"class.std::num_put" = type { %"class.std::locale::facet.base", [4 x i8] }
%"class.std::num_get" = type { %"class.std::locale::facet.base", [4 x i8] }

@_ZStL8__ioinit = internal global %"class.std::ios_base::Init" zeroinitializer, align 1
@__dso_handle = external hidden global i8
@_ZSt3cin = external global %"class.std::basic_istream", align 8
@_ZSt4cout = external global %"class.std::basic_ostream", align 8
@llvm.global_ctors = appending global [1 x { i32, void ()*, i8* }] [{ i32, void ()*, i8* } { i32 65535, void ()* @_GLOBAL__sub_I_956.cpp, i8* null }]

declare void @_ZNSt8ios_base4InitC1Ev(%"class.std::ios_base::Init"* nonnull align 1 dereferenceable(1)) unnamed_addr #0

; Function Attrs: nounwind
declare void @_ZNSt8ios_base4InitD1Ev(%"class.std::ios_base::Init"* nonnull align 1 dereferenceable(1)) unnamed_addr #1

; Function Attrs: nofree nounwind
declare i32 @__cxa_atexit(void (i8*)*, i8*, i8*) local_unnamed_addr #2

; Function Attrs: mustprogress norecurse sspstrong uwtable
define dso_local i32 @main() local_unnamed_addr #3 {
  %1 = alloca i8, align 1
  %2 = alloca i32, align 4
  %3 = alloca i32, align 4
  %4 = alloca [31 x i8], align 16
  %5 = alloca [31 x i8], align 16
  %6 = bitcast i32* %2 to i8*
  call void @llvm.lifetime.start.p0i8(i64 4, i8* nonnull %6) #7
  %7 = bitcast i32* %3 to i8*
  call void @llvm.lifetime.start.p0i8(i64 4, i8* nonnull %7) #7
  %8 = getelementptr inbounds [31 x i8], [31 x i8]* %4, i64 0, i64 0
  call void @llvm.lifetime.start.p0i8(i64 31, i8* nonnull %8) #7
  %9 = getelementptr inbounds [31 x i8], [31 x i8]* %5, i64 0, i64 0
  call void @llvm.lifetime.start.p0i8(i64 31, i8* nonnull %9) #7
  %10 = call nonnull align 8 dereferenceable(16) %"class.std::basic_istream"* @_ZNSirsERi(%"class.std::basic_istream"* nonnull align 8 dereferenceable(16) @_ZSt3cin, i32* nonnull align 4 dereferenceable(4) %2)
  call void @_ZSt17__istream_extractRSiPcl(%"class.std::basic_istream"* nonnull align 8 dereferenceable(16) %10, i8* nonnull %8, i64 31)
  %11 = call nonnull align 8 dereferenceable(16) %"class.std::basic_istream"* @_ZNSirsERi(%"class.std::basic_istream"* nonnull align 8 dereferenceable(16) %10, i32* nonnull align 4 dereferenceable(4) %3)
  %12 = load i32, i32* %2, align 4
  %13 = load i8, i8* %8, align 16
  %14 = icmp eq i8 %13, 0
  br i1 %14, label %25, label %15

15:                                               ; preds = %0
  %16 = getelementptr inbounds [31 x i8], [31 x i8]* %4, i64 0, i64 0
  %17 = icmp slt i8 %13, 58
  %18 = icmp sgt i8 %13, 96
  %19 = select i1 %18, i8 -87, i8 -55
  %20 = select i1 %17, i8 -48, i8 %19
  %21 = add i8 %13, %20
  store i8 %21, i8* %16, align 16, !tbaa !5
  %22 = sext i8 %21 to i32
  %23 = call i64 @strlen(i8* noundef nonnull %8) #8
  %24 = icmp ugt i64 %23, 1
  br i1 %24, label %28, label %25, !llvm.loop !8

25:                                               ; preds = %28, %15, %0
  %26 = phi i32 [ 0, %0 ], [ %22, %15 ], [ %41, %28 ]
  %27 = load i32, i32* %3, align 4, !tbaa !10
  br label %45

28:                                               ; preds = %15, %28
  %29 = phi i64 [ %42, %28 ], [ 1, %15 ]
  %30 = phi i32 [ %41, %28 ], [ %22, %15 ]
  %31 = getelementptr inbounds [31 x i8], [31 x i8]* %4, i64 0, i64 %29
  %32 = load i8, i8* %31, align 1, !tbaa !5
  %33 = getelementptr inbounds [31 x i8], [31 x i8]* %4, i64 0, i64 %29
  %34 = icmp slt i8 %32, 58
  %35 = icmp sgt i8 %32, 96
  %36 = select i1 %35, i8 -87, i8 -55
  %37 = select i1 %34, i8 -48, i8 %36
  %38 = add i8 %32, %37
  store i8 %38, i8* %33, align 1, !tbaa !5
  %39 = mul nsw i32 %12, %30
  %40 = sext i8 %38 to i32
  %41 = add nsw i32 %39, %40
  %42 = add nuw nsw i64 %29, 1
  %43 = call i64 @strlen(i8* noundef nonnull %8) #8
  %44 = icmp ugt i64 %43, %42
  br i1 %44, label %28, label %25, !llvm.loop !8

45:                                               ; preds = %25, %45
  %46 = phi i64 [ 0, %25 ], [ %55, %45 ]
  %47 = phi i32 [ %26, %25 ], [ %54, %45 ]
  %48 = srem i32 %47, %27
  %49 = icmp slt i32 %48, 10
  %50 = trunc i32 %48 to i8
  %51 = select i1 %49, i8 48, i8 55
  %52 = add i8 %51, %50
  %53 = getelementptr inbounds [31 x i8], [31 x i8]* %5, i64 0, i64 %46
  store i8 %52, i8* %53, align 1
  %54 = sdiv i32 %47, %27
  %55 = add nuw i64 %46, 1
  %56 = icmp eq i32 %54, 0
  br i1 %56, label %57, label %45, !llvm.loop !12

57:                                               ; preds = %45
  %58 = trunc i64 %55 to i32
  %59 = and i64 %55, 4294967295
  br label %60

60:                                               ; preds = %57, %60
  %61 = phi i64 [ %59, %57 ], [ %70, %60 ]
  %62 = phi i32 [ %58, %57 ], [ %63, %60 ]
  %63 = add nsw i32 %62, -1
  %64 = zext i32 %63 to i64
  %65 = getelementptr inbounds [31 x i8], [31 x i8]* %5, i64 0, i64 %64
  %66 = load i8, i8* %65, align 1, !tbaa !5
  call void @llvm.lifetime.start.p0i8(i64 1, i8* nonnull %1)
  store i8 %66, i8* %1, align 1, !tbaa !5
  %67 = call nonnull align 8 dereferenceable(8) %"class.std::basic_ostream"* @_ZSt16__ostream_insertIcSt11char_traitsIcEERSt13basic_ostreamIT_T0_ES6_PKS3_l(%"class.std::basic_ostream"* nonnull align 8 dereferenceable(8) @_ZSt4cout, i8* nonnull %1, i64 1)
  call void @llvm.lifetime.end.p0i8(i64 1, i8* nonnull %1)
  %68 = trunc i64 %61 to i32
  %69 = icmp sgt i32 %68, 1
  %70 = add nsw i64 %61, -1
  br i1 %69, label %60, label %71, !llvm.loop !13

71:                                               ; preds = %60
  call void @llvm.lifetime.end.p0i8(i64 31, i8* nonnull %9) #7
  call void @llvm.lifetime.end.p0i8(i64 31, i8* nonnull %8) #7
  call void @llvm.lifetime.end.p0i8(i64 4, i8* nonnull %7) #7
  call void @llvm.lifetime.end.p0i8(i64 4, i8* nonnull %6) #7
  ret i32 0
}

; Function Attrs: argmemonly mustprogress nofree nosync nounwind willreturn
declare void @llvm.lifetime.start.p0i8(i64 immarg, i8* nocapture) #4

declare nonnull align 8 dereferenceable(16) %"class.std::basic_istream"* @_ZNSirsERi(%"class.std::basic_istream"* nonnull align 8 dereferenceable(16), i32* nonnull align 4 dereferenceable(4)) local_unnamed_addr #0

; Function Attrs: argmemonly mustprogress nofree nounwind readonly willreturn
declare i64 @strlen(i8* nocapture) local_unnamed_addr #5

; Function Attrs: argmemonly mustprogress nofree nosync nounwind willreturn
declare void @llvm.lifetime.end.p0i8(i64 immarg, i8* nocapture) #4

declare void @_ZSt17__istream_extractRSiPcl(%"class.std::basic_istream"* nonnull align 8 dereferenceable(16), i8*, i64) local_unnamed_addr #0

declare nonnull align 8 dereferenceable(8) %"class.std::basic_ostream"* @_ZSt16__ostream_insertIcSt11char_traitsIcEERSt13basic_ostreamIT_T0_ES6_PKS3_l(%"class.std::basic_ostream"* nonnull align 8 dereferenceable(8), i8*, i64) local_unnamed_addr #0

; Function Attrs: sspstrong uwtable
define internal void @_GLOBAL__sub_I_956.cpp() #6 section ".text.startup" {
  tail call void @_ZNSt8ios_base4InitC1Ev(%"class.std::ios_base::Init"* nonnull align 1 dereferenceable(1) @_ZStL8__ioinit)
  %1 = tail call i32 @__cxa_atexit(void (i8*)* bitcast (void (%"class.std::ios_base::Init"*)* @_ZNSt8ios_base4InitD1Ev to void (i8*)*), i8* getelementptr inbounds (%"class.std::ios_base::Init", %"class.std::ios_base::Init"* @_ZStL8__ioinit, i64 0, i32 0), i8* nonnull @__dso_handle) #7
  ret void
}


!llvm.module.flags = !{!0, !1, !2, !3}
!llvm.ident = !{!4}

!0 = !{i32 1, !"wchar_size", i32 4}
!1 = !{i32 7, !"PIC Level", i32 2}
!2 = !{i32 7, !"PIE Level", i32 2}
!3 = !{i32 7, !"uwtable", i32 1}
!4 = !{!"clang version 13.0.0"}
!5 = !{!6, !6, i64 0}
!6 = !{!"omnipotent char", !7, i64 0}
!7 = !{!"Simple C++ TBAA"}
!8 = distinct !{!8, !9}
!9 = !{!"llvm.loop.mustprogress"}
!10 = !{!11, !11, i64 0}
!11 = !{!"int", !6, i64 0}
!12 = distinct !{!12, !9}
!13 = distinct !{!13, !9}
